target datalayout = "e-m:e-p270:32:32-p271:32:32-p272:64:64-i64:64-i128:128-f80:128-n8:16:32:64-S128"
target triple = "x86_64-pc-linux-gnu"

%struct.PaUtilRingBuffer = type { i64, i64, i64, i64, i64, i64, ptr }

; Function Attrs: nounwind uwtable
define i64 @PaUtil_GetRingBufferReadAvailable(ptr noundef %0) #0 {
  %2 = alloca ptr, align 8
  store ptr %0, ptr %2, align 8, !tbaa !3
  %3 = load ptr, ptr %2, align 8, !tbaa !3
  %4 = getelementptr inbounds nuw %struct.PaUtilRingBuffer, ptr %3, i32 0, i32 1
  %5 = load volatile i64, ptr %4, align 8, !tbaa !19
  %6 = load ptr, ptr %2, align 8, !tbaa !3
  %7 = getelementptr inbounds nuw %struct.PaUtilRingBuffer, ptr %6, i32 0, i32 2
  %8 = load volatile i64, ptr %7, align 8, !tbaa !18
  %9 = sub nsw i64 %5, %8
  %10 = load ptr, ptr %2, align 8, !tbaa !3
  %11 = getelementptr inbounds nuw %struct.PaUtilRingBuffer, ptr %10, i32 0, i32 3
  %12 = load i64, ptr %11, align 8, !tbaa !15
  %13 = and i64 %9, %12
  ret i64 %13
}

; Function Attrs: nounwind uwtable
define i64 @PaUtil_GetRingBufferReadRegions(ptr noundef %0, i64 noundef %1, ptr noundef %2, ptr noundef %3, ptr noundef %4, ptr noundef %5) #0 {
  %7 = alloca ptr, align 8
  %8 = alloca i64, align 8
  %9 = alloca ptr, align 8
  %10 = alloca ptr, align 8
  %11 = alloca ptr, align 8
  %12 = alloca ptr, align 8
  %13 = alloca i64, align 8
  %14 = alloca i64, align 8
  %15 = alloca i64, align 8
  store ptr %0, ptr %7, align 8, !tbaa !3
  store i64 %1, ptr %8, align 8, !tbaa !8
  store ptr %2, ptr %9, align 8, !tbaa !10
  store ptr %3, ptr %10, align 8, !tbaa !20
  store ptr %4, ptr %11, align 8, !tbaa !10
  store ptr %5, ptr %12, align 8, !tbaa !20
  call void @llvm.lifetime.start.p0(i64 8, ptr %13) #3
  call void @llvm.lifetime.start.p0(i64 8, ptr %14) #3
  %16 = load ptr, ptr %7, align 8, !tbaa !3
  %17 = call i64 @PaUtil_GetRingBufferReadAvailable(ptr noundef %16)
  store i64 %17, ptr %14, align 8, !tbaa !8
  %18 = load i64, ptr %8, align 8, !tbaa !8
  %19 = load i64, ptr %14, align 8, !tbaa !8
  %20 = icmp sgt i64 %18, %19
  br i1 %20, label %21, label %23

21:                                               ; preds = %6
  %22 = load i64, ptr %14, align 8, !tbaa !8
  store i64 %22, ptr %8, align 8, !tbaa !8
  br label %23

23:                                               ; preds = %21, %6
  %24 = load ptr, ptr %7, align 8, !tbaa !3
  %25 = getelementptr inbounds nuw %struct.PaUtilRingBuffer, ptr %24, i32 0, i32 2
  %26 = load volatile i64, ptr %25, align 8, !tbaa !18
  %27 = load ptr, ptr %7, align 8, !tbaa !3
  %28 = getelementptr inbounds nuw %struct.PaUtilRingBuffer, ptr %27, i32 0, i32 4
  %29 = load i64, ptr %28, align 8, !tbaa !16
  %30 = and i64 %26, %29
  store i64 %30, ptr %13, align 8, !tbaa !8
  %31 = load i64, ptr %13, align 8, !tbaa !8
  %32 = load i64, ptr %8, align 8, !tbaa !8
  %33 = add nsw i64 %31, %32
  %34 = load ptr, ptr %7, align 8, !tbaa !3
  %35 = getelementptr inbounds nuw %struct.PaUtilRingBuffer, ptr %34, i32 0, i32 0
  %36 = load i64, ptr %35, align 8, !tbaa !11
  %37 = icmp sgt i64 %33, %36
  br i1 %37, label %38, label %65

38:                                               ; preds = %23
  call void @llvm.lifetime.start.p0(i64 8, ptr %15) #3
  %39 = load ptr, ptr %7, align 8, !tbaa !3
  %40 = getelementptr inbounds nuw %struct.PaUtilRingBuffer, ptr %39, i32 0, i32 0
  %41 = load i64, ptr %40, align 8, !tbaa !11
  %42 = load i64, ptr %13, align 8, !tbaa !8
  %43 = sub nsw i64 %41, %42
  store i64 %43, ptr %15, align 8, !tbaa !8
  %44 = load ptr, ptr %7, align 8, !tbaa !3
  %45 = getelementptr inbounds nuw %struct.PaUtilRingBuffer, ptr %44, i32 0, i32 6
  %46 = load ptr, ptr %45, align 8, !tbaa !14
  %47 = load i64, ptr %13, align 8, !tbaa !8
  %48 = load ptr, ptr %7, align 8, !tbaa !3
  %49 = getelementptr inbounds nuw %struct.PaUtilRingBuffer, ptr %48, i32 0, i32 5
  %50 = load i64, ptr %49, align 8, !tbaa !17
  %51 = mul nsw i64 %47, %50
  %52 = getelementptr inbounds i8, ptr %46, i64 %51
  %53 = load ptr, ptr %9, align 8, !tbaa !10
  store ptr %52, ptr %53, align 8, !tbaa !10
  %54 = load i64, ptr %15, align 8, !tbaa !8
  %55 = load ptr, ptr %10, align 8, !tbaa !20
  store i64 %54, ptr %55, align 8, !tbaa !8
  %56 = load ptr, ptr %7, align 8, !tbaa !3
  %57 = getelementptr inbounds nuw %struct.PaUtilRingBuffer, ptr %56, i32 0, i32 6
  %58 = load ptr, ptr %57, align 8, !tbaa !14
  %59 = getelementptr inbounds i8, ptr %58, i64 0
  %60 = load ptr, ptr %11, align 8, !tbaa !10
  store ptr %59, ptr %60, align 8, !tbaa !10
  %61 = load i64, ptr %8, align 8, !tbaa !8
  %62 = load i64, ptr %15, align 8, !tbaa !8
  %63 = sub nsw i64 %61, %62
  %64 = load ptr, ptr %12, align 8, !tbaa !20
  store i64 %63, ptr %64, align 8, !tbaa !8
  call void @llvm.lifetime.end.p0(i64 8, ptr %15) #3
  br label %80

65:                                               ; preds = %23
  %66 = load ptr, ptr %7, align 8, !tbaa !3
  %67 = getelementptr inbounds nuw %struct.PaUtilRingBuffer, ptr %66, i32 0, i32 6
  %68 = load ptr, ptr %67, align 8, !tbaa !14
  %69 = load i64, ptr %13, align 8, !tbaa !8
  %70 = load ptr, ptr %7, align 8, !tbaa !3
  %71 = getelementptr inbounds nuw %struct.PaUtilRingBuffer, ptr %70, i32 0, i32 5
  %72 = load i64, ptr %71, align 8, !tbaa !17
  %73 = mul nsw i64 %69, %72
  %74 = getelementptr inbounds i8, ptr %68, i64 %73
  %75 = load ptr, ptr %9, align 8, !tbaa !10
  store ptr %74, ptr %75, align 8, !tbaa !10
  %76 = load i64, ptr %8, align 8, !tbaa !8
  %77 = load ptr, ptr %10, align 8, !tbaa !20
  store i64 %76, ptr %77, align 8, !tbaa !8
  %78 = load ptr, ptr %11, align 8, !tbaa !10
  store ptr null, ptr %78, align 8, !tbaa !10
  %79 = load ptr, ptr %12, align 8, !tbaa !20
  store i64 0, ptr %79, align 8, !tbaa !8
  br label %80

80:                                               ; preds = %65, %38
  %81 = load i64, ptr %14, align 8, !tbaa !8
  %82 = icmp ne i64 %81, 0
  br i1 %82, label %83, label %84

83:                                               ; preds = %80
  fence seq_cst
  br label %84

84:                                               ; preds = %83, %80
  %85 = load i64, ptr %8, align 8, !tbaa !8
  call void @llvm.lifetime.end.p0(i64 8, ptr %14) #3
  call void @llvm.lifetime.end.p0(i64 8, ptr %13) #3
  ret i64 %85
}