; Function Attrs: mustprogress nofree norecurse nounwind willreturn uwtable
define i64 @PaUtil_GetRingBufferReadRegions(ptr noundef %0, i64 noundef %1, ptr noundef writeonly captures(none) initializes((0, 8)) %2, ptr noundef writeonly captures(none) initializes((0, 8)) %3, ptr noundef writeonly captures(none) initializes((0, 8)) %4, ptr noundef writeonly captures(none) initializes((0, 8)) %5) local_unnamed_addr #2 {
  %7 = getelementptr inbounds nuw i8, ptr %0, i64 8
  %8 = load volatile i64, ptr %7, align 8, !tbaa !12
  %9 = getelementptr inbounds nuw i8, ptr %0, i64 16
  %10 = load volatile i64, ptr %9, align 8, !tbaa !11
  %11 = sub nsw i64 %8, %10
  %12 = getelementptr inbounds nuw i8, ptr %0, i64 24
  %13 = load i64, ptr %12, align 8, !tbaa !13
  %14 = and i64 %11, %13
  %spec.select = tail call i64 @llvm.smin.i64(i64 %1, i64 %14)
  %15 = load volatile i64, ptr %9, align 8, !tbaa !11
  %16 = getelementptr inbounds nuw i8, ptr %0, i64 32
  %17 = load i64, ptr %16, align 8, !tbaa !14
  %18 = and i64 %17, %15
  %19 = add nsw i64 %18, %spec.select
  %20 = load i64, ptr %0, align 8, !tbaa !3
  %21 = icmp sgt i64 %19, %20
  br i1 %21, label %22, label %32

22:                                               ; preds = %6
  %23 = sub nsw i64 %20, %18
  %24 = getelementptr inbounds nuw i8, ptr %0, i64 48
  %25 = load ptr, ptr %24, align 8, !tbaa !10
  %26 = getelementptr inbounds nuw i8, ptr %0, i64 40
  %27 = load i64, ptr %26, align 8, !tbaa !15
  %28 = mul nsw i64 %27, %18
  %29 = getelementptr inbounds i8, ptr %25, i64 %28
  store ptr %29, ptr %2, align 8, !tbaa !16
  %30 = load ptr, ptr %24, align 8, !tbaa !10
  %31 = sub nsw i64 %spec.select, %23
  br label %39

32:                                               ; preds = %6
  %33 = getelementptr inbounds nuw i8, ptr %0, i64 48
  %34 = load ptr, ptr %33, align 8, !tbaa !10
  %35 = getelementptr inbounds nuw i8, ptr %0, i64 40
  %36 = load i64, ptr %35, align 8, !tbaa !15
  %37 = mul nsw i64 %36, %18
  %38 = getelementptr inbounds i8, ptr %34, i64 %37
  store ptr %38, ptr %2, align 8, !tbaa !16
  br label %39

39:                                               ; preds = %32, %22
  %spec.select.sink = phi i64 [ %23, %22 ], [ %spec.select, %32 ]
  %.sink = phi ptr [ %30, %22 ], [ null, %32 ]
  %storemerge = phi i64 [ %31, %22 ], [ 0, %32 ]
  store i64 %spec.select.sink, ptr %3, align 8, !tbaa !17
  store ptr %.sink, ptr %4, align 8, !tbaa !16
  store i64 %storemerge, ptr %5, align 8, !tbaa !17
  %.not = icmp eq i64 %14, 0
  br i1 %.not, label %41, label %40

40:                                               ; preds = %39
  fence seq_cst
  br label %41

41:                                               ; preds = %40, %39
  ret i64 %spec.select
}